target datalayout = "e-m:e-p270:32:32-p271:32:32-p272:64:64-i64:64-i128:128-f80:128-n8:16:32:64-S128"
target triple = "x86_64-pc-linux-gnu"

%struct.anon = type { double, double, double, double, double }

; Function Attrs: nounwind uwtable
define internal i32 @JacB(double noundef %0, ptr noundef %1, ptr noundef %2, ptr noundef %3, ptr noundef %4, ptr noundef %5, ptr noundef %6, ptr noundef %7, ptr noundef %8) #0 {
  %10 = alloca double, align 8
  %11 = alloca ptr, align 8
  %12 = alloca ptr, align 8
  %13 = alloca ptr, align 8
  %14 = alloca ptr, align 8
  %15 = alloca ptr, align 8
  %16 = alloca ptr, align 8
  %17 = alloca ptr, align 8
  %18 = alloca ptr, align 8
  %19 = alloca i32, align 4
  %20 = alloca i32, align 4
  %21 = alloca i32, align 4
  %22 = alloca ptr, align 8
  %23 = alloca double, align 8
  %24 = alloca double, align 8
  %25 = alloca double, align 8
  %26 = alloca ptr, align 8
  store double %0, ptr %10, align 8, !tbaa !21
  store ptr %1, ptr %11, align 8, !tbaa !12
  store ptr %2, ptr %12, align 8, !tbaa !12
  store ptr %3, ptr %13, align 8, !tbaa !12
  store ptr %4, ptr %14, align 8, !tbaa !16
  store ptr %5, ptr %15, align 8, !tbaa !11
  store ptr %6, ptr %16, align 8, !tbaa !12
  store ptr %7, ptr %17, align 8, !tbaa !12
  store ptr %8, ptr %18, align 8, !tbaa !12
  call void @llvm.lifetime.start.p0(i64 4, ptr %19) #6
  call void @llvm.lifetime.start.p0(i64 4, ptr %20) #6
  call void @llvm.lifetime.start.p0(i64 4, ptr %21) #6
  call void @llvm.lifetime.start.p0(i64 8, ptr %22) #6
  call void @llvm.lifetime.start.p0(i64 8, ptr %23) #6
  call void @llvm.lifetime.start.p0(i64 8, ptr %24) #6
  call void @llvm.lifetime.start.p0(i64 8, ptr %25) #6
  call void @llvm.lifetime.start.p0(i64 8, ptr %26) #6
  %27 = load ptr, ptr %15, align 8, !tbaa !11
  store ptr %27, ptr %26, align 8, !tbaa !11
  %28 = load ptr, ptr %26, align 8, !tbaa !11
  %29 = getelementptr inbounds nuw %struct.anon, ptr %28, i32 0, i32 2
  %30 = load double, ptr %29, align 8, !tbaa !23
  store double %30, ptr %23, align 8, !tbaa !21
  %31 = load ptr, ptr %26, align 8, !tbaa !11
  %32 = getelementptr inbounds nuw %struct.anon, ptr %31, i32 0, i32 3
  %33 = load double, ptr %32, align 8, !tbaa !24
  store double %33, ptr %24, align 8, !tbaa !21
  %34 = load ptr, ptr %26, align 8, !tbaa !11
  %35 = getelementptr inbounds nuw %struct.anon, ptr %34, i32 0, i32 4
  %36 = load double, ptr %35, align 8, !tbaa !25
  store double %36, ptr %25, align 8, !tbaa !21
  store i32 1, ptr %20, align 4, !tbaa !4
  br label %37

37:                                               ; preds = %125, %9
  %38 = load i32, ptr %20, align 4, !tbaa !4
  %39 = icmp sle i32 %38, 20
  br i1 %39, label %40, label %128

40:                                               ; preds = %37
  store i32 1, ptr %19, align 4, !tbaa !4
  br label %41

41:                                               ; preds = %121, %40
  %42 = load i32, ptr %19, align 4, !tbaa !4
  %43 = icmp sle i32 %42, 40
  br i1 %43, label %44, label %124

44:                                               ; preds = %41
  %45 = load i32, ptr %20, align 4, !tbaa !4
  %46 = sub nsw i32 %45, 1
  %47 = load i32, ptr %19, align 4, !tbaa !4
  %48 = sub nsw i32 %47, 1
  %49 = mul nsw i32 %48, 20
  %50 = add nsw i32 %46, %49
  store i32 %50, ptr %21, align 4, !tbaa !4
  %51 = load ptr, ptr %14, align 8, !tbaa !16
  %52 = load i32, ptr %21, align 4, !tbaa !4
  %53 = sext i32 %52 to i64
  %54 = call ptr @SUNBandMatrix_Column(ptr noundef %51, i64 noundef %53)
  store ptr %54, ptr %22, align 8, !tbaa !34
  %55 = load double, ptr %25, align 8, !tbaa !21
  %56 = load double, ptr %23, align 8, !tbaa !21
  %57 = fadd double %55, %56
  %58 = fmul double 2.000000e+00, %57
  %59 = load ptr, ptr %22, align 8, !tbaa !34
  %60 = load i32, ptr %21, align 4, !tbaa !4
  %61 = load i32, ptr %21, align 4, !tbaa !4
  %62 = sub nsw i32 %60, %61
  %63 = sext i32 %62 to i64
  %64 = getelementptr inbounds double, ptr %59, i64 %63
  store double %58, ptr %64, align 8, !tbaa !21
  %65 = load i32, ptr %19, align 4, !tbaa !4
  %66 = icmp ne i32 %65, 1
  br i1 %66, label %67, label %79

67:                                               ; preds = %44
  %68 = load double, ptr %23, align 8, !tbaa !21
  %69 = fneg double %68
  %70 = load double, ptr %24, align 8, !tbaa !21
  %71 = fadd double %69, %70
  %72 = load ptr, ptr %22, align 8, !tbaa !34
  %73 = load i32, ptr %21, align 4, !tbaa !4
  %74 = sub nsw i32 %73, 20
  %75 = load i32, ptr %21, align 4, !tbaa !4
  %76 = sub nsw i32 %74, %75
  %77 = sext i32 %76 to i64
  %78 = getelementptr inbounds double, ptr %72, i64 %77
  store double %71, ptr %78, align 8, !tbaa !21
  br label %79

79:                                               ; preds = %67, %44
  %80 = load i32, ptr %19, align 4, !tbaa !4
  %81 = icmp ne i32 %80, 40
  br i1 %81, label %82, label %94

82:                                               ; preds = %79
  %83 = load double, ptr %23, align 8, !tbaa !21
  %84 = fneg double %83
  %85 = load double, ptr %24, align 8, !tbaa !21
  %86 = fsub double %84, %85
  %87 = load ptr, ptr %22, align 8, !tbaa !34
  %88 = load i32, ptr %21, align 4, !tbaa !4
  %89 = add nsw i32 %88, 20
  %90 = load i32, ptr %21, align 4, !tbaa !4
  %91 = sub nsw i32 %89, %90
  %92 = sext i32 %91 to i64
  %93 = getelementptr inbounds double, ptr %87, i64 %92
  store double %86, ptr %93, align 8, !tbaa !21
  br label %94

94:                                               ; preds = %82, %79
  %95 = load i32, ptr %20, align 4, !tbaa !4
  %96 = icmp ne i32 %95, 1
  br i1 %96, label %97, label %107

97:                                               ; preds = %94
  %98 = load double, ptr %25, align 8, !tbaa !21
  %99 = fneg double %98
  %100 = load ptr, ptr %22, align 8, !tbaa !34
  %101 = load i32, ptr %21, align 4, !tbaa !4
  %102 = sub nsw i32 %101, 1
  %103 = load i32, ptr %21, align 4, !tbaa !4
  %104 = sub nsw i32 %102, %103
  %105 = sext i32 %104 to i64
  %106 = getelementptr inbounds double, ptr %100, i64 %105
  store double %99, ptr %106, align 8, !tbaa !21
  br label %107

107:                                              ; preds = %97, %94
  %108 = load i32, ptr %20, align 4, !tbaa !4
  %109 = icmp ne i32 %108, 20
  br i1 %109, label %110, label %120

110:                                              ; preds = %107
  %111 = load double, ptr %25, align 8, !tbaa !21
  %112 = fneg double %111
  %113 = load ptr, ptr %22, align 8, !tbaa !34
  %114 = load i32, ptr %21, align 4, !tbaa !4
  %115 = add nsw i32 %114, 1
  %116 = load i32, ptr %21, align 4, !tbaa !4
  %117 = sub nsw i32 %115, %116
  %118 = sext i32 %117 to i64
  %119 = getelementptr inbounds double, ptr %113, i64 %118
  store double %112, ptr %119, align 8, !tbaa !21
  br label %120

120:                                              ; preds = %110, %107
  br label %121

121:                                              ; preds = %120
  %122 = load i32, ptr %19, align 4, !tbaa !4
  %123 = add nsw i32 %122, 1
  store i32 %123, ptr %19, align 4, !tbaa !4
  br label %41

124:                                              ; preds = %41
  br label %125

125:                                              ; preds = %124
  %126 = load i32, ptr %20, align 4, !tbaa !4
  %127 = add nsw i32 %126, 1
  store i32 %127, ptr %20, align 4, !tbaa !4
  br label %37

128:                                              ; preds = %37
  call void @llvm.lifetime.end.p0(i64 8, ptr %26) #6
  call void @llvm.lifetime.end.p0(i64 8, ptr %25) #6
  call void @llvm.lifetime.end.p0(i64 8, ptr %24) #6
  call void @llvm.lifetime.end.p0(i64 8, ptr %23) #6
  call void @llvm.lifetime.end.p0(i64 8, ptr %22) #6
  call void @llvm.lifetime.end.p0(i64 4, ptr %21) #6
  call void @llvm.lifetime.end.p0(i64 4, ptr %20) #6
  call void @llvm.lifetime.end.p0(i64 4, ptr %19) #6
  ret i32 0
}