; Function Attrs: nounwind uwtable
define internal noundef i32 @JacB(double %0, ptr readnone captures(none) %1, ptr readnone captures(none) %2, ptr readnone captures(none) %3, ptr noundef %4, ptr noundef readonly captures(none) %5, ptr readnone captures(none) %6, ptr readnone captures(none) %7, ptr readnone captures(none) %8) #0 {
  %10 = getelementptr inbounds nuw i8, ptr %5, i64 16
  %11 = load double, ptr %10, align 8, !tbaa !13
  %12 = getelementptr inbounds nuw i8, ptr %5, i64 24
  %13 = load double, ptr %12, align 8, !tbaa !14
  %14 = getelementptr inbounds nuw i8, ptr %5, i64 32
  %15 = load double, ptr %14, align 8, !tbaa !15
  %16 = fadd double %11, %15
  %17 = fmul double %16, 2.000000e+00
  %18 = fsub double %13, %11
  %19 = fneg double %11
  %20 = fsub double %19, %13
  %21 = fneg double %15
  br label %.preheader

.preheader:                                       ; preds = %9, %.split.us
  %indvars.iv59 = phi i64 [ 1, %9 ], [ %indvars.iv.next60, %.split.us ]
  %22 = add nuw nsw i64 %indvars.iv59, -21
  switch i64 %indvars.iv59, label %.preheader.split.split [
    i64 1, label %.preheader.split.us
    i64 20, label %.preheader.split.split.us
  ]

.preheader.split.us:                              ; preds = %.preheader, %28
  %indvars.iv55 = phi i64 [ %indvars.iv.next56, %28 ], [ %indvars.iv59, %.preheader ]
  %23 = mul nuw nsw i64 %indvars.iv55, 20
  %24 = add nsw i64 %22, %23
  %25 = tail call ptr @SUNBandMatrix_Column(ptr noundef %4, i64 noundef %24) #9
  store double %17, ptr %25, align 8, !tbaa !20
  %cond.us = icmp eq i64 %indvars.iv55, 1
  br i1 %cond.us, label %28, label %26

26:                                               ; preds = %.preheader.split.us
  %27 = getelementptr inbounds i8, ptr %25, i64 -160
  store double %18, ptr %27, align 8, !tbaa !20
  %.not39.us = icmp eq i64 %indvars.iv55, 40
  br i1 %.not39.us, label %.split.us.loopexit, label %28

28:                                               ; preds = %.preheader.split.us, %26
  %29 = getelementptr inbounds nuw i8, ptr %25, i64 160
  store double %20, ptr %29, align 8, !tbaa !20
  %30 = getelementptr inbounds nuw i8, ptr %25, i64 8
  store double %21, ptr %30, align 8, !tbaa !20
  %indvars.iv.next56 = add nuw nsw i64 %indvars.iv55, 1
  br label %.preheader.split.us

.preheader.split.split.us:                        ; preds = %.preheader, %36
  %indvars.iv51 = phi i64 [ %indvars.iv.next52, %36 ], [ 1, %.preheader ]
  %31 = mul nuw nsw i64 %indvars.iv51, 20
  %32 = add nsw i64 %22, %31
  %33 = tail call ptr @SUNBandMatrix_Column(ptr noundef %4, i64 noundef %32) #9
  store double %17, ptr %33, align 8, !tbaa !20
  %cond.us45 = icmp eq i64 %indvars.iv51, 1
  br i1 %cond.us45, label %36, label %34

34:                                               ; preds = %.preheader.split.split.us
  %35 = getelementptr inbounds i8, ptr %33, i64 -160
  store double %18, ptr %35, align 8, !tbaa !20
  %.not39.us46 = icmp eq i64 %indvars.iv51, 40
  br i1 %.not39.us46, label %.split.us.loopexit48, label %36

36:                                               ; preds = %.preheader.split.split.us, %34
  %37 = getelementptr inbounds nuw i8, ptr %33, i64 160
  store double %20, ptr %37, align 8, !tbaa !20
  %38 = getelementptr inbounds i8, ptr %33, i64 -8
  store double %21, ptr %38, align 8, !tbaa !20
  %indvars.iv.next52 = add nuw nsw i64 %indvars.iv51, 1
  br label %.preheader.split.split.us

.preheader.split.split:                           ; preds = %.preheader, %44
  %indvars.iv = phi i64 [ %indvars.iv.next, %44 ], [ 1, %.preheader ]
  %39 = mul nuw nsw i64 %indvars.iv, 20
  %40 = add nsw i64 %22, %39
  %41 = tail call ptr @SUNBandMatrix_Column(ptr noundef %4, i64 noundef %40) #9
  store double %17, ptr %41, align 8, !tbaa !20
  %cond = icmp eq i64 %indvars.iv, 1
  br i1 %cond, label %44, label %42

42:                                               ; preds = %.preheader.split.split
  %43 = getelementptr inbounds i8, ptr %41, i64 -160
  store double %18, ptr %43, align 8, !tbaa !20
  %.not39 = icmp eq i64 %indvars.iv, 40
  br i1 %.not39, label %.split.us.loopexit49, label %44

44:                                               ; preds = %42, %.preheader.split.split
  %45 = getelementptr inbounds nuw i8, ptr %41, i64 160
  store double %20, ptr %45, align 8, !tbaa !20
  %46 = getelementptr inbounds i8, ptr %41, i64 -8
  store double %21, ptr %46, align 8, !tbaa !20
  %47 = getelementptr inbounds nuw i8, ptr %41, i64 8
  store double %21, ptr %47, align 8, !tbaa !20
  %indvars.iv.next = add nuw nsw i64 %indvars.iv, 1
  br label %.preheader.split.split

.split.us.loopexit:                               ; preds = %26
  %48 = getelementptr inbounds nuw i8, ptr %25, i64 8
  store double %21, ptr %48, align 8, !tbaa !20
  br label %.split.us

.split.us.loopexit48:                             ; preds = %34
  %49 = getelementptr inbounds i8, ptr %33, i64 -8
  store double %21, ptr %49, align 8, !tbaa !20
  br label %.split.us

.split.us.loopexit49:                             ; preds = %42
  %50 = getelementptr inbounds i8, ptr %41, i64 -8
  store double %21, ptr %50, align 8, !tbaa !20
  %51 = getelementptr inbounds nuw i8, ptr %41, i64 8
  store double %21, ptr %51, align 8, !tbaa !20
  br label %.split.us

.split.us:                                        ; preds = %.split.us.loopexit49, %.split.us.loopexit48, %.split.us.loopexit
  %indvars.iv.next60 = add nuw nsw i64 %indvars.iv59, 1
  %exitcond62.not = icmp eq i64 %indvars.iv.next60, 21
  br i1 %exitcond62.not, label %52, label %.preheader

52:                                               ; preds = %.split.us
  ret i32 0
}